; ModuleID = '31/1560.c'
source_filename = "31/1560.c"
target datalayout = "e-m:e-p270:32:32-p271:32:32-p272:64:64-i64:64-f80:128-n8:16:32:64-S128"
target triple = "x86_64-pc-linux-gnu"

%struct.student = type { [50 x i8], %struct.student* }

@n = common dso_local global i32 0, align 4
@.str = private unnamed_addr constant [4 x i8] c"end\00", align 1
@.str.1 = private unnamed_addr constant [4 x i8] c"%s\0A\00", align 1

; Function Attrs: noinline nounwind uwtable
define dso_local %struct.student* @creat() #0 {
  %1 = alloca %struct.student*, align 8
  %2 = alloca %struct.student*, align 8
  %3 = alloca %struct.student*, align 8
  store i32 0, i32* @n, align 4
  %4 = call noalias i8* @malloc(i64 100) #4
  %5 = bitcast i8* %4 to %struct.student*
  store %struct.student* %5, %struct.student** %3, align 8
  store %struct.student* %5, %struct.student** %2, align 8
  %6 = load %struct.student*, %struct.student** %2, align 8
  %7 = getelementptr inbounds %struct.student, %struct.student* %6, i32 0, i32 0
  %8 = getelementptr inbounds [50 x i8], [50 x i8]* %7, i64 0, i64 0
  %9 = call i32 (i8*, ...) bitcast (i32 (...)* @gets to i32 (i8*, ...)*)(i8* %8)
  store %struct.student* null, %struct.student** %1, align 8
  br label %10

10:                                               ; preds = %27, %0
  %11 = load %struct.student*, %struct.student** %2, align 8
  %12 = getelementptr inbounds %struct.student, %struct.student* %11, i32 0, i32 0
  %13 = getelementptr inbounds [50 x i8], [50 x i8]* %12, i64 0, i64 0
  %14 = call i32 @strcmp(i8* %13, i8* getelementptr inbounds ([4 x i8], [4 x i8]* @.str, i64 0, i64 0)) #5
  %15 = icmp ne i32 %14, 0
  br i1 %15, label %16, label %35

16:                                               ; preds = %10
  %17 = load i32, i32* @n, align 4
  %18 = add nsw i32 %17, 1
  store i32 %18, i32* @n, align 4
  %19 = load i32, i32* @n, align 4
  %20 = icmp eq i32 %19, 1
  br i1 %20, label %21, label %23

21:                                               ; preds = %16
  %22 = load %struct.student*, %struct.student** %2, align 8
  store %struct.student* %22, %struct.student** %1, align 8
  br label %27

23:                                               ; preds = %16
  %24 = load %struct.student*, %struct.student** %2, align 8
  %25 = load %struct.student*, %struct.student** %3, align 8
  %26 = getelementptr inbounds %struct.student, %struct.student* %25, i32 0, i32 1
  store %struct.student* %24, %struct.student** %26, align 8
  br label %27

27:                                               ; preds = %23, %21
  %28 = load %struct.student*, %struct.student** %2, align 8
  store %struct.student* %28, %struct.student** %3, align 8
  %29 = call noalias i8* @malloc(i64 100) #4
  %30 = bitcast i8* %29 to %struct.student*
  store %struct.student* %30, %struct.student** %2, align 8
  %31 = load %struct.student*, %struct.student** %2, align 8
  %32 = getelementptr inbounds %struct.student, %struct.student* %31, i32 0, i32 0
  %33 = getelementptr inbounds [50 x i8], [50 x i8]* %32, i64 0, i64 0
  %34 = call i32 (i8*, ...) bitcast (i32 (...)* @gets to i32 (i8*, ...)*)(i8* %33)
  br label %10

35:                                               ; preds = %10
  %36 = load %struct.student*, %struct.student** %3, align 8
  %37 = getelementptr inbounds %struct.student, %struct.student* %36, i32 0, i32 1
  store %struct.student* null, %struct.student** %37, align 8
  %38 = load %struct.student*, %struct.student** %1, align 8
  ret %struct.student* %38
}

; Function Attrs: nounwind
declare dso_local noalias i8* @malloc(i64) #1

declare dso_local i32 @gets(...) #2

; Function Attrs: nounwind readonly
declare dso_local i32 @strcmp(i8*, i8*) #3

; Function Attrs: noinline nounwind uwtable
define dso_local %struct.student* @reverse(%struct.student* %0) #0 {
  %2 = alloca %struct.student*, align 8
  %3 = alloca %struct.student*, align 8
  %4 = alloca %struct.student*, align 8
  %5 = alloca %struct.student*, align 8
  store %struct.student* %0, %struct.student** %2, align 8
  %6 = load %struct.student*, %struct.student** %2, align 8
  store %struct.student* %6, %struct.student** %4, align 8
  %7 = load %struct.student*, %struct.student** %2, align 8
  %8 = getelementptr inbounds %struct.student, %struct.student* %7, i32 0, i32 1
  %9 = load %struct.student*, %struct.student** %8, align 8
  store %struct.student* %9, %struct.student** %5, align 8
  br label %10

10:                                               ; preds = %19, %1
  %11 = load %struct.student*, %struct.student** %4, align 8
  store %struct.student* %11, %struct.student** %3, align 8
  %12 = load %struct.student*, %struct.student** %5, align 8
  store %struct.student* %12, %struct.student** %4, align 8
  %13 = load %struct.student*, %struct.student** %4, align 8
  %14 = getelementptr inbounds %struct.student, %struct.student* %13, i32 0, i32 1
  %15 = load %struct.student*, %struct.student** %14, align 8
  store %struct.student* %15, %struct.student** %5, align 8
  %16 = load %struct.student*, %struct.student** %3, align 8
  %17 = load %struct.student*, %struct.student** %4, align 8
  %18 = getelementptr inbounds %struct.student, %struct.student* %17, i32 0, i32 1
  store %struct.student* %16, %struct.student** %18, align 8
  br label %19

19:                                               ; preds = %10
  %20 = load %struct.student*, %struct.student** %5, align 8
  %21 = icmp ne %struct.student* %20, null
  br i1 %21, label %10, label %22

22:                                               ; preds = %19
  %23 = load %struct.student*, %struct.student** %2, align 8
  %24 = getelementptr inbounds %struct.student, %struct.student* %23, i32 0, i32 1
  store %struct.student* null, %struct.student** %24, align 8
  %25 = load %struct.student*, %struct.student** %4, align 8
  ret %struct.student* %25
}

; Function Attrs: noinline nounwind uwtable
define dso_local void @print(%struct.student* %0) #0 {
  %2 = alloca %struct.student*, align 8
  %3 = alloca %struct.student*, align 8
  store %struct.student* %0, %struct.student** %2, align 8
  %4 = load %struct.student*, %struct.student** %2, align 8
  store %struct.student* %4, %struct.student** %3, align 8
  %5 = load %struct.student*, %struct.student** %2, align 8
  %6 = icmp ne %struct.student* %5, null
  br i1 %6, label %7, label %26

7:                                                ; preds = %1
  br label %8

8:                                                ; preds = %21, %7
  %9 = load %struct.student*, %struct.student** %3, align 8
  %10 = icmp ne %struct.student* %9, null
  br i1 %10, label %11, label %25

11:                                               ; preds = %8
  %12 = load %struct.student*, %struct.student** %3, align 8
  %13 = getelementptr inbounds %struct.student, %struct.student* %12, i32 0, i32 0
  %14 = getelementptr inbounds [50 x i8], [50 x i8]* %13, i64 0, i64 0
  %15 = icmp ne i8* %14, getelementptr inbounds ([4 x i8], [4 x i8]* @.str, i64 0, i64 0)
  br i1 %15, label %16, label %21

16:                                               ; preds = %11
  %17 = load %struct.student*, %struct.student** %3, align 8
  %18 = getelementptr inbounds %struct.student, %struct.student* %17, i32 0, i32 0
  %19 = getelementptr inbounds [50 x i8], [50 x i8]* %18, i64 0, i64 0
  %20 = call i32 (i8*, ...) @printf(i8* getelementptr inbounds ([4 x i8], [4 x i8]* @.str.1, i64 0, i64 0), i8* %19)
  br label %21

21:                                               ; preds = %16, %11
  %22 = load %struct.student*, %struct.student** %3, align 8
  %23 = getelementptr inbounds %struct.student, %struct.student* %22, i32 0, i32 1
  %24 = load %struct.student*, %struct.student** %23, align 8
  store %struct.student* %24, %struct.student** %3, align 8
  br label %8

25:                                               ; preds = %8
  br label %26

26:                                               ; preds = %25, %1
  ret void
}

declare dso_local i32 @printf(i8*, ...) #2

; Function Attrs: noinline nounwind uwtable
define dso_local i32 @main() #0 {
  %1 = alloca i32, align 4
  %2 = alloca %struct.student*, align 8
  store i32 0, i32* %1, align 4
  %3 = call %struct.student* @creat()
  store %struct.student* %3, %struct.student** %2, align 8
  %4 = load %struct.student*, %struct.student** %2, align 8
  %5 = call %struct.student* @reverse(%struct.student* %4)
  store %struct.student* %5, %struct.student** %2, align 8
  %6 = load %struct.student*, %struct.student** %2, align 8
  call void @print(%struct.student* %6)
  ret i32 0
}


!llvm.module.flags = !{!0}
!llvm.ident = !{!1}

!0 = !{i32 1, !"wchar_size", i32 4}
!1 = !{!"clang version 10.0.0-4ubuntu1 "}
